; Function Attrs: nounwind uwtable
define internal ptr @weakref_vectorcall(ptr noundef readonly captures(none) %0, ptr readnone captures(none) %1, i64 noundef %2, ptr noundef %3) #0 {
  %5 = icmp eq ptr %3, null
  br i1 %5, label %8, label %6

6:                                                ; preds = %4
  %7 = tail call i32 @_PyArg_NoKwnames(ptr noundef nonnull @.str.27, ptr noundef nonnull %3) #6
  %.not = icmp eq i32 %7, 0
  br i1 %.not, label %22, label %8

8:                                                ; preds = %6, %4
  %9 = and i64 %2, 9223372036854775807
  %10 = icmp eq i64 %9, 0
  br i1 %10, label %13, label %11

11:                                               ; preds = %8
  %12 = tail call i32 @_PyArg_CheckPositional(ptr noundef nonnull @.str.27, i64 noundef %9, i64 noundef 0, i64 noundef 0) #6
  %.not12 = icmp eq i32 %12, 0
  br i1 %.not12, label %22, label %13

13:                                               ; preds = %8, %11
  %14 = getelementptr i8, ptr %0, i64 16
  %.val = load ptr, ptr %14, align 8, !tbaa !37
  %15 = icmp eq ptr %.val, @_Py_NoneStruct
  br i1 %15, label %_PyWeakref_GET_REF.exit, label %16

16:                                               ; preds = %13
  %.val.i.i = load i32, ptr %.val, align 8, !tbaa !42
  %.not.i.i = icmp eq i32 %.val.i.i, 0
  br i1 %.not.i.i, label %_PyWeakref_GET_REF.exit, label %17

17:                                               ; preds = %16
  %18 = icmp slt i32 %.val.i.i, 0
  br i1 %18, label %_PyWeakref_GET_REF.exit, label %19

19:                                               ; preds = %17
  %20 = add nuw i32 %.val.i.i, 1
  store i32 %20, ptr %.val, align 8, !tbaa !42
  br label %_PyWeakref_GET_REF.exit

_PyWeakref_GET_REF.exit:                          ; preds = %13, %16, %17, %19
  %.0.i = phi ptr [ null, %13 ], [ null, %16 ], [ %.val, %17 ], [ %.val, %19 ]
  %21 = icmp eq ptr %.0.i, null
  %_Py_NoneStruct. = select i1 %21, ptr @_Py_NoneStruct, ptr %.0.i
  br label %22

22:                                               ; preds = %_PyWeakref_GET_REF.exit, %11, %6
  %.0 = phi ptr [ null, %6 ], [ %_Py_NoneStruct., %_PyWeakref_GET_REF.exit ], [ null, %11 ]
  ret ptr %.0
}